; Function Attrs: cold mustprogress nofree norecurse nosync nounwind optsize willreturn memory(argmem: write) uwtable
define void @ff_mpv_common_defaults(ptr noundef writeonly captures(none) initializes((536, 540), (912, 916), (1344, 1352), (4192, 4196), (4212, 4216), (4264, 4268)) %0) local_unnamed_addr #6 {
  %2 = getelementptr inbounds nuw i8, ptr %0, i64 1344
  store ptr @ff_default_chroma_qscale_table, ptr %2, align 8, !tbaa !63
  %3 = getelementptr inbounds nuw i8, ptr %0, i64 4264
  store i32 1, ptr %3, align 8, !tbaa !64
  %4 = getelementptr inbounds nuw i8, ptr %0, i64 4192
  store i32 1, ptr %4, align 8, !tbaa !65
  %5 = getelementptr inbounds nuw i8, ptr %0, i64 4212
  store i32 3, ptr %5, align 4, !tbaa !66
  %6 = getelementptr inbounds nuw i8, ptr %0, i64 536
  store i32 0, ptr %6, align 8, !tbaa !67
  %7 = getelementptr inbounds nuw i8, ptr %0, i64 912
  store i32 1, ptr %7, align 8, !tbaa !44
  ret void
}